target datalayout = "e-m:e-p270:32:32-p271:32:32-p272:64:64-i64:64-i128:128-f80:128-n8:16:32:64-S128"
target triple = "x86_64-pc-linux-gnu"

%struct.ossl_param_st = type { ptr, i32, ptr, i64, i64 }

@stderr = external global ptr, align 8
@.str.22 = private unnamed_addr constant [21 x i8] c"Failed to set tbslen\00", align 1
@.str.23 = private unnamed_addr constant [25 x i8] c"../openssl/fuzz/ml-dsa.c\00", align 1
@.str.24 = private unnamed_addr constant [29 x i8] c"Failed basic initialization\0A\00", align 1
@.str.27 = private unnamed_addr constant [11 x i8] c"?fips=true\00", align 1
@.str.28 = private unnamed_addr constant [43 x i8] c"Failed to sign digest with EVP_DigestSign\0A\00", align 1
@.str.29 = private unnamed_addr constant [47 x i8] c"Failed to verify digest with EVP_DigestVerify\0A\00", align 1

; Function Attrs: nounwind uwtable
define internal ptr @consume_size_t(ptr noundef %0, ptr noundef %1, ptr noundef %2) #0 {
  %4 = alloca ptr, align 8
  %5 = alloca ptr, align 8
  %6 = alloca ptr, align 8
  %7 = alloca ptr, align 8
  store ptr %0, ptr %5, align 8, !tbaa !11
  store ptr %1, ptr %6, align 8, !tbaa !21
  store ptr %2, ptr %7, align 8, !tbaa !21
  %8 = load ptr, ptr %6, align 8, !tbaa !21
  %9 = load i64, ptr %8, align 8, !tbaa !13
  %10 = icmp ult i64 %9, 8
  br i1 %10, label %11, label %12

11:                                               ; preds = %3
  store ptr null, ptr %4, align 8
  br label %22

12:                                               ; preds = %3
  %13 = load ptr, ptr %5, align 8, !tbaa !11
  %14 = load i8, ptr %13, align 1, !tbaa !16
  %15 = zext i8 %14 to i64
  %16 = load ptr, ptr %7, align 8, !tbaa !21
  store i64 %15, ptr %16, align 8, !tbaa !13
  %17 = load ptr, ptr %6, align 8, !tbaa !21
  %18 = load i64, ptr %17, align 8, !tbaa !13
  %19 = sub i64 %18, 8
  store i64 %19, ptr %17, align 8, !tbaa !13
  %20 = load ptr, ptr %5, align 8, !tbaa !11
  %21 = getelementptr inbounds nuw i8, ptr %20, i64 8
  store ptr %21, ptr %4, align 8
  br label %22

22:                                               ; preds = %12, %11
  %23 = load ptr, ptr %4, align 8
  ret ptr %23
}

; Function Attrs: nounwind uwtable
define internal void @ml_dsa_digest_sign_verify(ptr noundef %0, ptr noundef %1, ptr noundef %2, ptr noundef %3, ptr noundef %4, ptr noundef %5) #0 {
  %7 = alloca ptr, align 8
  %8 = alloca ptr, align 8
  %9 = alloca ptr, align 8
  %10 = alloca ptr, align 8
  %11 = alloca ptr, align 8
  %12 = alloca ptr, align 8
  %13 = alloca ptr, align 8
  %14 = alloca ptr, align 8
  %15 = alloca ptr, align 8
  %16 = alloca ptr, align 8
  %17 = alloca i64, align 8
  %18 = alloca i64, align 8
  %19 = alloca ptr, align 8
  %20 = alloca [2 x %struct.ossl_param_st], align 16
  store ptr %0, ptr %7, align 8, !tbaa !23
  store ptr %1, ptr %8, align 8, !tbaa !21
  store ptr %2, ptr %9, align 8, !tbaa !15
  store ptr %3, ptr %10, align 8, !tbaa !15
  store ptr %4, ptr %11, align 8, !tbaa !15
  store ptr %5, ptr %12, align 8, !tbaa !15
  call void @llvm.lifetime.start.p0(i64 8, ptr %13) #6
  %21 = load ptr, ptr %9, align 8, !tbaa !15
  store ptr %21, ptr %13, align 8, !tbaa !27
  call void @llvm.lifetime.start.p0(i64 8, ptr %14) #6
  %22 = call ptr @EVP_MD_CTX_new()
  store ptr %22, ptr %14, align 8, !tbaa !35
  call void @llvm.lifetime.start.p0(i64 8, ptr %15) #6
  store ptr null, ptr %15, align 8, !tbaa !33
  call void @llvm.lifetime.start.p0(i64 8, ptr %16) #6
  store ptr null, ptr %16, align 8, !tbaa !11
  call void @llvm.lifetime.start.p0(i64 8, ptr %17) #6
  call void @llvm.lifetime.start.p0(i64 8, ptr %18) #6
  call void @llvm.lifetime.start.p0(i64 8, ptr %19) #6
  store ptr null, ptr %19, align 8, !tbaa !11
  call void @llvm.lifetime.start.p0(i64 80, ptr %20) #6
  call void @llvm.memcpy.p0.p0.i64(ptr align 16 %20, ptr align 16 @__const.ml_dsa_digest_sign_verify.params, i64 80, i1 false)
  %23 = load ptr, ptr %7, align 8, !tbaa !23
  %24 = load ptr, ptr %23, align 8, !tbaa !11
  %25 = load ptr, ptr %8, align 8, !tbaa !21
  %26 = call ptr @consume_size_t(ptr noundef %24, ptr noundef %25, ptr noundef %18)
  %27 = icmp ne ptr %26, null
  br i1 %27, label %31, label %28

28:                                               ; preds = %6
  %29 = load ptr, ptr @stderr, align 8, !tbaa !29
  %30 = call i32 (ptr, ptr, ...) @fprintf(ptr noundef %29, ptr noundef @.str.22) #6
  br label %97

31:                                               ; preds = %6
  %32 = load i64, ptr %18, align 8, !tbaa !13
  %33 = urem i64 %32, 2048
  %34 = add i64 %33, 1
  store i64 %34, ptr %18, align 8, !tbaa !13
  %35 = load i64, ptr %18, align 8, !tbaa !13
  %36 = call noalias ptr @CRYPTO_malloc(i64 noundef %35, ptr noundef @.str.23, i32 noundef 399)
  store ptr %36, ptr %19, align 8, !tbaa !11
  %37 = icmp eq ptr %36, null
  br i1 %37, label %46, label %38

38:                                               ; preds = %31
  %39 = load ptr, ptr %14, align 8, !tbaa !35
  %40 = icmp eq ptr %39, null
  br i1 %40, label %46, label %41

41:                                               ; preds = %38
  %42 = load ptr, ptr %19, align 8, !tbaa !11
  %43 = load i64, ptr %18, align 8, !tbaa !13
  %44 = call i32 @RAND_bytes_ex(ptr noundef null, ptr noundef %42, i64 noundef %43, i32 noundef 0)
  %45 = icmp ne i32 %44, 0
  br i1 %45, label %49, label %46

46:                                               ; preds = %41, %38, %31
  %47 = load ptr, ptr @stderr, align 8, !tbaa !29
  %48 = call i32 (ptr, ptr, ...) @fprintf(ptr noundef %47, ptr noundef @.str.24) #6
  br label %97

49:                                               ; preds = %41
  %50 = load ptr, ptr %14, align 8, !tbaa !35
  %51 = load ptr, ptr %13, align 8, !tbaa !27
  %52 = getelementptr inbounds [2 x %struct.ossl_param_st], ptr %20, i64 0, i64 0
  %53 = call i32 @EVP_DigestSignInit_ex(ptr noundef %50, ptr noundef null, ptr noundef null, ptr noundef null, ptr noundef @.str.27, ptr noundef %51, ptr noundef %52)
  %54 = icmp ne i32 %53, 0
  br i1 %54, label %55, label %72

55:                                               ; preds = %49
  %56 = load ptr, ptr %14, align 8, !tbaa !35
  %57 = load ptr, ptr %19, align 8, !tbaa !11
  %58 = load i64, ptr %18, align 8, !tbaa !13
  %59 = call i32 @EVP_DigestSign(ptr noundef %56, ptr noundef null, ptr noundef %17, ptr noundef %57, i64 noundef %58)
  %60 = icmp sle i32 %59, 0
  br i1 %60, label %72, label %61

61:                                               ; preds = %55
  %62 = load i64, ptr %17, align 8, !tbaa !13
  %63 = call noalias ptr @CRYPTO_malloc(i64 noundef %62, ptr noundef @.str.23, i32 noundef 414)
  store ptr %63, ptr %16, align 8, !tbaa !11
  %64 = icmp eq ptr %63, null
  br i1 %64, label %72, label %65

65:                                               ; preds = %61
  %66 = load ptr, ptr %14, align 8, !tbaa !35
  %67 = load ptr, ptr %16, align 8, !tbaa !11
  %68 = load ptr, ptr %19, align 8, !tbaa !11
  %69 = load i64, ptr %18, align 8, !tbaa !13
  %70 = call i32 @EVP_DigestSign(ptr noundef %66, ptr noundef %67, ptr noundef %17, ptr noundef %68, i64 noundef %69)
  %71 = icmp sle i32 %70, 0
  br i1 %71, label %72, label %75

72:                                               ; preds = %65, %61, %55, %49
  %73 = load ptr, ptr @stderr, align 8, !tbaa !29
  %74 = call i32 (ptr, ptr, ...) @fprintf(ptr noundef %73, ptr noundef @.str.28) #6
  br label %97

75:                                               ; preds = %65
  %76 = load ptr, ptr %14, align 8, !tbaa !35
  call void @EVP_MD_CTX_free(ptr noundef %76)
  store ptr null, ptr %14, align 8, !tbaa !35
  %77 = call ptr @EVP_MD_CTX_new()
  store ptr %77, ptr %14, align 8, !tbaa !35
  %78 = icmp eq ptr %77, null
  br i1 %78, label %93, label %79

79:                                               ; preds = %75
  %80 = load ptr, ptr %14, align 8, !tbaa !35
  %81 = load ptr, ptr %13, align 8, !tbaa !27
  %82 = getelementptr inbounds [2 x %struct.ossl_param_st], ptr %20, i64 0, i64 0
  %83 = call i32 @EVP_DigestVerifyInit_ex(ptr noundef %80, ptr noundef null, ptr noundef null, ptr noundef null, ptr noundef @.str.27, ptr noundef %81, ptr noundef %82)
  %84 = icmp sle i32 %83, 0
  br i1 %84, label %93, label %85

85:                                               ; preds = %79
  %86 = load ptr, ptr %14, align 8, !tbaa !35
  %87 = load ptr, ptr %16, align 8, !tbaa !11
  %88 = load i64, ptr %17, align 8, !tbaa !13
  %89 = load ptr, ptr %19, align 8, !tbaa !11
  %90 = load i64, ptr %18, align 8, !tbaa !13
  %91 = call i32 @EVP_DigestVerify(ptr noundef %86, ptr noundef %87, i64 noundef %88, ptr noundef %89, i64 noundef %90)
  %92 = icmp sle i32 %91, 0
  br i1 %92, label %93, label %96

93:                                               ; preds = %85, %79, %75
  %94 = load ptr, ptr @stderr, align 8, !tbaa !29
  %95 = call i32 (ptr, ptr, ...) @fprintf(ptr noundef %94, ptr noundef @.str.29) #6
  br label %97

96:                                               ; preds = %85
  br label %97

97:                                               ; preds = %96, %93, %72, %46, %28
  %98 = load ptr, ptr %19, align 8, !tbaa !11
  call void @CRYPTO_free(ptr noundef %98, ptr noundef @.str.23, i32 noundef 433)
  %99 = load ptr, ptr %14, align 8, !tbaa !35
  call void @EVP_MD_CTX_free(ptr noundef %99)
  %100 = load ptr, ptr %15, align 8, !tbaa !33
  call void @EVP_SIGNATURE_free(ptr noundef %100)
  %101 = load ptr, ptr %16, align 8, !tbaa !11
  call void @CRYPTO_free(ptr noundef %101, ptr noundef @.str.23, i32 noundef 436)
  call void @llvm.lifetime.end.p0(i64 80, ptr %20) #6
  call void @llvm.lifetime.end.p0(i64 8, ptr %19) #6
  call void @llvm.lifetime.end.p0(i64 8, ptr %18) #6
  call void @llvm.lifetime.end.p0(i64 8, ptr %17) #6
  call void @llvm.lifetime.end.p0(i64 8, ptr %16) #6
  call void @llvm.lifetime.end.p0(i64 8, ptr %15) #6
  call void @llvm.lifetime.end.p0(i64 8, ptr %14) #6
  call void @llvm.lifetime.end.p0(i64 8, ptr %13) #6
  ret void
}