; Function Attrs: nounwind uwtable
define internal void @ml_dsa_digest_sign_verify(ptr noundef readonly captures(none) %0, ptr noundef captures(none) %1, ptr noundef %2, ptr readnone captures(none) %3, ptr readnone captures(none) %4, ptr readnone captures(none) %5) #1 {
  %7 = alloca i64, align 8
  %8 = alloca [2 x %struct.ossl_param_st], align 16
  %9 = tail call ptr @EVP_MD_CTX_new() #6
  call void @llvm.lifetime.start.p0(i64 8, ptr nonnull %7) #6
  call void @llvm.lifetime.start.p0(i64 80, ptr nonnull %8) #6
  call void @llvm.memcpy.p0.p0.i64(ptr noundef nonnull align 16 dereferenceable(80) %8, ptr noundef nonnull align 16 dereferenceable(80) @__const.ml_dsa_digest_sign_verify.params, i64 80, i1 false)
  %10 = load i64, ptr %1, align 8, !tbaa !9
  %11 = icmp ult i64 %10, 8
  br i1 %11, label %12, label %15

12:                                               ; preds = %6
  %13 = load ptr, ptr @stderr, align 8, !tbaa !16
  %14 = tail call i64 @fwrite(ptr nonnull @.str.22, i64 20, i64 1, ptr %13) #7
  br label %57

15:                                               ; preds = %6
  %16 = load ptr, ptr %0, align 8, !tbaa !11
  %17 = load i8, ptr %16, align 1, !tbaa !8
  %18 = zext i8 %17 to i64
  %19 = add i64 %10, -8
  store i64 %19, ptr %1, align 8, !tbaa !9
  %20 = add nuw nsw i64 %18, 1
  %21 = tail call noalias ptr @CRYPTO_malloc(i64 noundef %20, ptr noundef nonnull @.str.23, i32 noundef 399) #6
  %22 = icmp eq ptr %21, null
  %23 = icmp eq ptr %9, null
  %or.cond = select i1 %22, i1 true, i1 %23
  br i1 %or.cond, label %26, label %24

24:                                               ; preds = %15
  %25 = tail call i32 @RAND_bytes_ex(ptr noundef null, ptr noundef nonnull %21, i64 noundef %20, i32 noundef 0) #6
  %.not30 = icmp eq i32 %25, 0
  br i1 %.not30, label %26, label %29

26:                                               ; preds = %24, %15
  %27 = load ptr, ptr @stderr, align 8, !tbaa !16
  %28 = tail call i64 @fwrite(ptr nonnull @.str.24, i64 28, i64 1, ptr %27) #7
  br label %57

29:                                               ; preds = %24
  %30 = call i32 @EVP_DigestSignInit_ex(ptr noundef nonnull %9, ptr noundef null, ptr noundef null, ptr noundef null, ptr noundef nonnull @.str.27, ptr noundef %2, ptr noundef nonnull %8) #6
  %.not31 = icmp eq i32 %30, 0
  br i1 %.not31, label %41, label %31

31:                                               ; preds = %29
  %32 = call i32 @EVP_DigestSign(ptr noundef nonnull %9, ptr noundef null, ptr noundef nonnull %7, ptr noundef nonnull %21, i64 noundef %20) #6
  %33 = icmp slt i32 %32, 1
  br i1 %33, label %41, label %34

34:                                               ; preds = %31
  %35 = load i64, ptr %7, align 8, !tbaa !9
  %36 = call noalias ptr @CRYPTO_malloc(i64 noundef %35, ptr noundef nonnull @.str.23, i32 noundef 414) #6
  %37 = icmp eq ptr %36, null
  br i1 %37, label %41, label %38

38:                                               ; preds = %34
  %39 = call i32 @EVP_DigestSign(ptr noundef nonnull %9, ptr noundef nonnull %36, ptr noundef nonnull %7, ptr noundef nonnull %21, i64 noundef %20) #6
  %40 = icmp slt i32 %39, 1
  br i1 %40, label %41, label %44

41:                                               ; preds = %38, %34, %31, %29
  %.1 = phi ptr [ null, %31 ], [ null, %34 ], [ %36, %38 ], [ null, %29 ]
  %42 = load ptr, ptr @stderr, align 8, !tbaa !16
  %43 = call i64 @fwrite(ptr nonnull @.str.28, i64 42, i64 1, ptr %42) #7
  br label %57

44:                                               ; preds = %38
  call void @EVP_MD_CTX_free(ptr noundef nonnull %9) #6
  %45 = call ptr @EVP_MD_CTX_new() #6
  %46 = icmp eq ptr %45, null
  br i1 %46, label %54, label %47

47:                                               ; preds = %44
  %48 = call i32 @EVP_DigestVerifyInit_ex(ptr noundef nonnull %45, ptr noundef null, ptr noundef null, ptr noundef null, ptr noundef nonnull @.str.27, ptr noundef %2, ptr noundef nonnull %8) #6
  %49 = icmp slt i32 %48, 1
  br i1 %49, label %54, label %50

50:                                               ; preds = %47
  %51 = load i64, ptr %7, align 8, !tbaa !9
  %52 = call i32 @EVP_DigestVerify(ptr noundef nonnull %45, ptr noundef nonnull %36, i64 noundef %51, ptr noundef nonnull %21, i64 noundef %20) #6
  %53 = icmp slt i32 %52, 1
  br i1 %53, label %54, label %57

54:                                               ; preds = %50, %47, %44
  %55 = load ptr, ptr @stderr, align 8, !tbaa !16
  %56 = call i64 @fwrite(ptr nonnull @.str.29, i64 46, i64 1, ptr %55) #7
  br label %57

57:                                               ; preds = %50, %54, %41, %26, %12
  %.024 = phi ptr [ %9, %26 ], [ %9, %41 ], [ %45, %54 ], [ %45, %50 ], [ %9, %12 ]
  %.023 = phi ptr [ null, %26 ], [ %.1, %41 ], [ %36, %54 ], [ %36, %50 ], [ null, %12 ]
  %.0 = phi ptr [ %21, %26 ], [ %21, %41 ], [ %21, %54 ], [ %21, %50 ], [ null, %12 ]
  call void @CRYPTO_free(ptr noundef %.0, ptr noundef nonnull @.str.23, i32 noundef 433) #6
  call void @EVP_MD_CTX_free(ptr noundef %.024) #6
  call void @EVP_SIGNATURE_free(ptr noundef null) #6
  call void @CRYPTO_free(ptr noundef %.023, ptr noundef nonnull @.str.23, i32 noundef 436) #6
  call void @llvm.lifetime.end.p0(i64 80, ptr nonnull %8) #6
  call void @llvm.lifetime.end.p0(i64 8, ptr nonnull %7) #6
  ret void
}